target datalayout = "e-m:e-p270:32:32-p271:32:32-p272:64:64-i64:64-i128:128-f80:128-n8:16:32:64-S128"
target triple = "x86_64-pc-linux-gnu"

%struct.AVFilterLink = type { ptr, ptr, ptr, ptr, i32, i32, i32, i32, %struct.AVRational, i32, i32, i32, %struct.AVChannelLayout, %struct.AVRational, ptr, i32, %struct.AVFilterFormatsConfig, %struct.AVFilterFormatsConfig }
%struct.AVChannelLayout = type { i32, i32, %union.anon, ptr }
%union.anon = type { i64 }
%struct.AVFilterFormatsConfig = type { ptr, ptr, ptr, ptr, ptr }
%struct.AVRational = type { i32, i32 }

@.str.3 = private unnamed_addr constant [30 x i8] c"Assertion %s failed at %s:%d\0A\00", align 1
@.str.5 = private unnamed_addr constant [28 x i8] c"libavfilter/avfiltergraph.c\00", align 1
@.str.54 = private unnamed_addr constant [11 x i8] c"!\22reached\22\00", align 1

; Function Attrs: nounwind uwtable
define internal i32 @filter_link_check_formats(ptr noundef %0, ptr noundef %1, ptr noundef %2) #0 {
  %4 = alloca i32, align 4
  %5 = alloca ptr, align 8
  %6 = alloca ptr, align 8
  %7 = alloca ptr, align 8
  %8 = alloca i32, align 4
  %9 = alloca i32, align 4
  store ptr %0, ptr %5, align 8, !tbaa !54
  store ptr %1, ptr %6, align 8, !tbaa !33
  store ptr %2, ptr %7, align 8, !tbaa !206
  call void @llvm.lifetime.start.p0(i64 4, ptr %8) #11
  %10 = load ptr, ptr %6, align 8, !tbaa !33
  %11 = getelementptr inbounds nuw %struct.AVFilterLink, ptr %10, i32 0, i32 4
  %12 = load i32, ptr %11, align 8, !tbaa !88
  switch i32 %12, label %61 [
    i32 0, label %13
    i32 1, label %37
  ]

13:                                               ; preds = %3
  %14 = load ptr, ptr %5, align 8, !tbaa !54
  %15 = load ptr, ptr %7, align 8, !tbaa !206
  %16 = getelementptr inbounds nuw %struct.AVFilterFormatsConfig, ptr %15, i32 0, i32 0
  %17 = load ptr, ptr %16, align 8, !tbaa !212
  %18 = call i32 @ff_formats_check_pixel_formats(ptr noundef %14, ptr noundef %17)
  store i32 %18, ptr %8, align 4, !tbaa !20
  %19 = icmp slt i32 %18, 0
  br i1 %19, label %34, label %20

20:                                               ; preds = %13
  %21 = load ptr, ptr %5, align 8, !tbaa !54
  %22 = load ptr, ptr %7, align 8, !tbaa !206
  %23 = getelementptr inbounds nuw %struct.AVFilterFormatsConfig, ptr %22, i32 0, i32 3
  %24 = load ptr, ptr %23, align 8, !tbaa !213
  %25 = call i32 @ff_formats_check_color_spaces(ptr noundef %21, ptr noundef %24)
  store i32 %25, ptr %8, align 4, !tbaa !20
  %26 = icmp slt i32 %25, 0
  br i1 %26, label %34, label %27

27:                                               ; preds = %20
  %28 = load ptr, ptr %5, align 8, !tbaa !54
  %29 = load ptr, ptr %7, align 8, !tbaa !206
  %30 = getelementptr inbounds nuw %struct.AVFilterFormatsConfig, ptr %29, i32 0, i32 4
  %31 = load ptr, ptr %30, align 8, !tbaa !214
  %32 = call i32 @ff_formats_check_color_ranges(ptr noundef %28, ptr noundef %31)
  store i32 %32, ptr %8, align 4, !tbaa !20
  %33 = icmp slt i32 %32, 0
  br i1 %33, label %34, label %36

34:                                               ; preds = %27, %20, %13
  %35 = load i32, ptr %8, align 4, !tbaa !20
  store i32 %35, ptr %4, align 4
  store i32 1, ptr %9, align 4
  br label %66

36:                                               ; preds = %27
  br label %65

37:                                               ; preds = %3
  %38 = load ptr, ptr %5, align 8, !tbaa !54
  %39 = load ptr, ptr %7, align 8, !tbaa !206
  %40 = getelementptr inbounds nuw %struct.AVFilterFormatsConfig, ptr %39, i32 0, i32 0
  %41 = load ptr, ptr %40, align 8, !tbaa !212
  %42 = call i32 @ff_formats_check_sample_formats(ptr noundef %38, ptr noundef %41)
  store i32 %42, ptr %8, align 4, !tbaa !20
  %43 = icmp slt i32 %42, 0
  br i1 %43, label %58, label %44

44:                                               ; preds = %37
  %45 = load ptr, ptr %5, align 8, !tbaa !54
  %46 = load ptr, ptr %7, align 8, !tbaa !206
  %47 = getelementptr inbounds nuw %struct.AVFilterFormatsConfig, ptr %46, i32 0, i32 1
  %48 = load ptr, ptr %47, align 8, !tbaa !215
  %49 = call i32 @ff_formats_check_sample_rates(ptr noundef %45, ptr noundef %48)
  store i32 %49, ptr %8, align 4, !tbaa !20
  %50 = icmp slt i32 %49, 0
  br i1 %50, label %58, label %51

51:                                               ; preds = %44
  %52 = load ptr, ptr %5, align 8, !tbaa !54
  %53 = load ptr, ptr %7, align 8, !tbaa !206
  %54 = getelementptr inbounds nuw %struct.AVFilterFormatsConfig, ptr %53, i32 0, i32 2
  %55 = load ptr, ptr %54, align 8, !tbaa !216
  %56 = call i32 @ff_formats_check_channel_layouts(ptr noundef %52, ptr noundef %55)
  store i32 %56, ptr %8, align 4, !tbaa !20
  %57 = icmp slt i32 %56, 0
  br i1 %57, label %58, label %60

58:                                               ; preds = %51, %44, %37
  %59 = load i32, ptr %8, align 4, !tbaa !20
  store i32 %59, ptr %4, align 4
  store i32 1, ptr %9, align 4
  br label %66

60:                                               ; preds = %51
  br label %65

61:                                               ; preds = %3
  br label %62

62:                                               ; preds = %61
  call void (ptr, i32, ptr, ...) @av_log(ptr noundef null, i32 noundef 0, ptr noundef @.str.3, ptr noundef @.str.54, ptr noundef @.str.5, i32 noundef 316)
  call void @abort() #13
  unreachable

63:                                               ; No predecessors!
  br label %64

64:                                               ; preds = %63
  br label %65

65:                                               ; preds = %64, %60, %36
  store i32 0, ptr %4, align 4
  store i32 1, ptr %9, align 4
  br label %66

66:                                               ; preds = %65, %58, %34
  call void @llvm.lifetime.end.p0(i64 4, ptr %8) #11
  %67 = load i32, ptr %4, align 4
  ret i32 %67
}