; Function Attrs: nounwind uwtable
define internal fastcc range(i32 -2147483648, 1) i32 @filter_link_check_formats(ptr noundef %0, i32 %.32.val, ptr noundef readonly captures(none) %1) unnamed_addr #0 {
  switch i32 %.32.val, label %31 [
    i32 0, label %3
    i32 1, label %17
  ]

3:                                                ; preds = %2
  %4 = load ptr, ptr %1, align 8, !tbaa !223
  %5 = tail call i32 @ff_formats_check_pixel_formats(ptr noundef %0, ptr noundef %4) #14
  %6 = icmp slt i32 %5, 0
  br i1 %6, label %33, label %7

7:                                                ; preds = %3
  %8 = getelementptr inbounds nuw i8, ptr %1, i64 24
  %9 = load ptr, ptr %8, align 8, !tbaa !224
  %10 = tail call i32 @ff_formats_check_color_spaces(ptr noundef %0, ptr noundef %9) #14
  %11 = icmp slt i32 %10, 0
  br i1 %11, label %33, label %12

12:                                               ; preds = %7
  %13 = getelementptr inbounds nuw i8, ptr %1, i64 32
  %14 = load ptr, ptr %13, align 8, !tbaa !225
  %15 = tail call i32 @ff_formats_check_color_ranges(ptr noundef %0, ptr noundef %14) #14
  %16 = icmp slt i32 %15, 0
  br i1 %16, label %33, label %32

17:                                               ; preds = %2
  %18 = load ptr, ptr %1, align 8, !tbaa !223
  %19 = tail call i32 @ff_formats_check_sample_formats(ptr noundef %0, ptr noundef %18) #14
  %20 = icmp slt i32 %19, 0
  br i1 %20, label %33, label %21

21:                                               ; preds = %17
  %22 = getelementptr inbounds nuw i8, ptr %1, i64 8
  %23 = load ptr, ptr %22, align 8, !tbaa !226
  %24 = tail call i32 @ff_formats_check_sample_rates(ptr noundef %0, ptr noundef %23) #14
  %25 = icmp slt i32 %24, 0
  br i1 %25, label %33, label %26

26:                                               ; preds = %21
  %27 = getelementptr inbounds nuw i8, ptr %1, i64 16
  %28 = load ptr, ptr %27, align 8, !tbaa !227
  %29 = tail call i32 @ff_formats_check_channel_layouts(ptr noundef %0, ptr noundef %28) #14
  %30 = icmp slt i32 %29, 0
  br i1 %30, label %33, label %32

31:                                               ; preds = %2
  tail call void (ptr, i32, ptr, ...) @av_log(ptr noundef null, i32 noundef 0, ptr noundef nonnull @.str.3, ptr noundef nonnull @.str.54, ptr noundef nonnull @.str.5, i32 noundef 316) #14
  tail call void @abort() #16
  unreachable

32:                                               ; preds = %26, %12
  br label %33

33:                                               ; preds = %17, %21, %26, %3, %7, %12, %32
  %.015 = phi i32 [ 0, %32 ], [ %5, %3 ], [ %10, %7 ], [ %15, %12 ], [ %19, %17 ], [ %24, %21 ], [ %29, %26 ]
  ret i32 %.015
}